target datalayout = "e-m:e-p270:32:32-p271:32:32-p272:64:64-i64:64-i128:128-f80:128-n8:16:32:64-S128"
target triple = "x86_64-pc-linux-gnu"

%struct.lua_State = type { ptr, i8, i8, i8, i8, i16, %union.StkIdRel, ptr, ptr, %union.StkIdRel, %union.StkIdRel, ptr, %union.StkIdRel, ptr, ptr, ptr, %struct.CallInfo, ptr, i64, i32, i32, i32, i32, i32, %struct.anon.3 }
%union.StkIdRel = type { ptr }
%struct.CallInfo = type { %union.StkIdRel, %union.StkIdRel, ptr, ptr, %union.anon, %union.anon.2, i32 }
%union.anon = type { %struct.anon.1 }
%struct.anon.1 = type { ptr, i64, i64 }
%union.anon.2 = type { i32 }
%struct.anon.3 = type { i32, i32 }
%struct.TValue = type { %union.Value, i8 }
%union.Value = type { ptr }
%union.StackValue = type { %struct.TValue }
%struct.anon.0 = type { ptr, i32, i32 }

; Function Attrs: inlinehint nounwind uwtable
define internal void @ccall(ptr noundef %0, ptr noundef %1, i32 noundef %2, i32 noundef %3) #9 {
  %5 = alloca ptr, align 8
  %6 = alloca ptr, align 8
  %7 = alloca i32, align 4
  %8 = alloca i32, align 4
  %9 = alloca ptr, align 8
  %10 = alloca i64, align 8
  store ptr %0, ptr %5, align 8, !tbaa !4
  store ptr %1, ptr %6, align 8, !tbaa !11
  store i32 %2, ptr %7, align 4, !tbaa !9
  store i32 %3, ptr %8, align 4, !tbaa !9
  call void @llvm.lifetime.start.p0(i64 8, ptr %9) #11
  %11 = load i32, ptr %8, align 4, !tbaa !9
  %12 = load ptr, ptr %5, align 8, !tbaa !4
  %13 = getelementptr inbounds nuw %struct.lua_State, ptr %12, i32 0, i32 19
  %14 = load i32, ptr %13, align 8, !tbaa !48
  %15 = add i32 %14, %11
  store i32 %15, ptr %13, align 8, !tbaa !48
  %16 = load ptr, ptr %5, align 8, !tbaa !4
  %17 = getelementptr inbounds nuw %struct.lua_State, ptr %16, i32 0, i32 19
  %18 = load i32, ptr %17, align 8, !tbaa !48
  %19 = and i32 %18, 65535
  %20 = icmp uge i32 %19, 200
  %21 = zext i1 %20 to i32
  %22 = icmp ne i32 %21, 0
  %23 = zext i1 %22 to i32
  %24 = sext i32 %23 to i64
  %25 = call i64 @llvm.expect.i64(i64 %24, i64 0)
  %26 = icmp ne i64 %25, 0
  br i1 %26, label %27, label %63

27:                                               ; preds = %4
  %28 = load ptr, ptr %5, align 8, !tbaa !4
  %29 = getelementptr inbounds nuw %struct.lua_State, ptr %28, i32 0, i32 9
  %30 = load ptr, ptr %29, align 8, !tbaa !34
  %31 = load ptr, ptr %5, align 8, !tbaa !4
  %32 = getelementptr inbounds nuw %struct.lua_State, ptr %31, i32 0, i32 6
  %33 = load ptr, ptr %32, align 8, !tbaa !34
  %34 = ptrtoint ptr %30 to i64
  %35 = ptrtoint ptr %33 to i64
  %36 = sub i64 %34, %35
  %37 = sdiv exact i64 %36, 16
  %38 = icmp sle i64 %37, 0
  %39 = zext i1 %38 to i32
  %40 = icmp ne i32 %39, 0
  %41 = zext i1 %40 to i32
  %42 = sext i32 %41 to i64
  %43 = call i64 @llvm.expect.i64(i64 %42, i64 0)
  %44 = icmp ne i64 %43, 0
  br i1 %44, label %45, label %60

45:                                               ; preds = %27
  call void @llvm.lifetime.start.p0(i64 8, ptr %10) #11
  %46 = load ptr, ptr %6, align 8, !tbaa !11
  %47 = load ptr, ptr %5, align 8, !tbaa !4
  %48 = getelementptr inbounds nuw %struct.lua_State, ptr %47, i32 0, i32 10
  %49 = load ptr, ptr %48, align 8, !tbaa !34
  %50 = ptrtoint ptr %46 to i64
  %51 = ptrtoint ptr %49 to i64
  %52 = sub i64 %50, %51
  store i64 %52, ptr %10, align 8, !tbaa !59
  %53 = load ptr, ptr %5, align 8, !tbaa !4
  %54 = call i32 @luaD_growstack(ptr noundef %53, i32 noundef 0, i32 noundef 1)
  %55 = load ptr, ptr %5, align 8, !tbaa !4
  %56 = getelementptr inbounds nuw %struct.lua_State, ptr %55, i32 0, i32 10
  %57 = load ptr, ptr %56, align 8, !tbaa !34
  %58 = load i64, ptr %10, align 8, !tbaa !59
  %59 = getelementptr inbounds i8, ptr %57, i64 %58
  store ptr %59, ptr %6, align 8, !tbaa !11
  call void @llvm.lifetime.end.p0(i64 8, ptr %10) #11
  br label %61

60:                                               ; preds = %27
  br label %61

61:                                               ; preds = %60, %45
  %62 = load ptr, ptr %5, align 8, !tbaa !4
  call void @luaE_checkcstack(ptr noundef %62)
  br label %63

63:                                               ; preds = %61, %4
  %64 = load ptr, ptr %5, align 8, !tbaa !4
  %65 = load ptr, ptr %6, align 8, !tbaa !11
  %66 = load i32, ptr %7, align 4, !tbaa !9
  %67 = call ptr @luaD_precall(ptr noundef %64, ptr noundef %65, i32 noundef %66)
  store ptr %67, ptr %9, align 8, !tbaa !54
  %68 = icmp ne ptr %67, null
  br i1 %68, label %69, label %76

69:                                               ; preds = %63
  %70 = load ptr, ptr %9, align 8, !tbaa !54
  %71 = getelementptr inbounds nuw %struct.CallInfo, ptr %70, i32 0, i32 6
  %72 = load i32, ptr %71, align 4, !tbaa !56
  %73 = or i32 %72, 65536
  store i32 %73, ptr %71, align 4, !tbaa !56
  %74 = load ptr, ptr %5, align 8, !tbaa !4
  %75 = load ptr, ptr %9, align 8, !tbaa !54
  call void @luaV_execute(ptr noundef %74, ptr noundef %75)
  br label %76

76:                                               ; preds = %69, %63
  %77 = load i32, ptr %8, align 4, !tbaa !9
  %78 = load ptr, ptr %5, align 8, !tbaa !4
  %79 = getelementptr inbounds nuw %struct.lua_State, ptr %78, i32 0, i32 19
  %80 = load i32, ptr %79, align 8, !tbaa !48
  %81 = sub i32 %80, %77
  store i32 %81, ptr %79, align 8, !tbaa !48
  call void @llvm.lifetime.end.p0(i64 8, ptr %9) #11
  ret void
}

; Function Attrs: nounwind uwtable
define internal void @resume(ptr noundef %0, ptr noundef %1) #0 {
  %3 = alloca ptr, align 8
  %4 = alloca ptr, align 8
  %5 = alloca i32, align 4
  %6 = alloca ptr, align 8
  %7 = alloca ptr, align 8
  store ptr %0, ptr %3, align 8, !tbaa !4
  store ptr %1, ptr %4, align 8, !tbaa !47
  call void @llvm.lifetime.start.p0(i64 4, ptr %5) #11
  %8 = load ptr, ptr %4, align 8, !tbaa !47
  %9 = load i32, ptr %8, align 4, !tbaa !9
  store i32 %9, ptr %5, align 4, !tbaa !9
  call void @llvm.lifetime.start.p0(i64 8, ptr %6) #11
  %10 = load ptr, ptr %3, align 8, !tbaa !4
  %11 = getelementptr inbounds nuw %struct.lua_State, ptr %10, i32 0, i32 6
  %12 = load ptr, ptr %11, align 8, !tbaa !34
  %13 = load i32, ptr %5, align 4, !tbaa !9
  %14 = sext i32 %13 to i64
  %15 = sub i64 0, %14
  %16 = getelementptr inbounds %union.StackValue, ptr %12, i64 %15
  store ptr %16, ptr %6, align 8, !tbaa !11
  call void @llvm.lifetime.start.p0(i64 8, ptr %7) #11
  %17 = load ptr, ptr %3, align 8, !tbaa !4
  %18 = getelementptr inbounds nuw %struct.lua_State, ptr %17, i32 0, i32 8
  %19 = load ptr, ptr %18, align 8, !tbaa !53
  store ptr %19, ptr %7, align 8, !tbaa !54
  %20 = load ptr, ptr %3, align 8, !tbaa !4
  %21 = getelementptr inbounds nuw %struct.lua_State, ptr %20, i32 0, i32 3
  %22 = load i8, ptr %21, align 2, !tbaa !44
  %23 = zext i8 %22 to i32
  %24 = icmp eq i32 %23, 0
  br i1 %24, label %25, label %29

25:                                               ; preds = %2
  %26 = load ptr, ptr %3, align 8, !tbaa !4
  %27 = load ptr, ptr %6, align 8, !tbaa !11
  %28 = getelementptr inbounds %union.StackValue, ptr %27, i64 -1
  call void @ccall(ptr noundef %26, ptr noundef %28, i32 noundef -1, i32 noundef 0)
  br label %71

29:                                               ; preds = %2
  %30 = load ptr, ptr %3, align 8, !tbaa !4
  %31 = getelementptr inbounds nuw %struct.lua_State, ptr %30, i32 0, i32 3
  store i8 0, ptr %31, align 2, !tbaa !44
  %32 = load ptr, ptr %7, align 8, !tbaa !54
  %33 = getelementptr inbounds nuw %struct.CallInfo, ptr %32, i32 0, i32 6
  %34 = load i32, ptr %33, align 4, !tbaa !56
  %35 = and i32 %34, 32768
  %36 = icmp ne i32 %35, 0
  br i1 %36, label %48, label %37

37:                                               ; preds = %29
  %38 = load ptr, ptr %7, align 8, !tbaa !54
  %39 = getelementptr inbounds nuw %struct.CallInfo, ptr %38, i32 0, i32 4
  %40 = getelementptr inbounds nuw %struct.anon.0, ptr %39, i32 0, i32 0
  %41 = load ptr, ptr %40, align 8, !tbaa !34
  %42 = getelementptr inbounds i32, ptr %41, i32 -1
  store ptr %42, ptr %40, align 8, !tbaa !34
  %43 = load ptr, ptr %6, align 8, !tbaa !11
  %44 = load ptr, ptr %3, align 8, !tbaa !4
  %45 = getelementptr inbounds nuw %struct.lua_State, ptr %44, i32 0, i32 6
  store ptr %43, ptr %45, align 8, !tbaa !34
  %46 = load ptr, ptr %3, align 8, !tbaa !4
  %47 = load ptr, ptr %7, align 8, !tbaa !54
  call void @luaV_execute(ptr noundef %46, ptr noundef %47)
  br label %69

48:                                               ; preds = %29
  %49 = load ptr, ptr %7, align 8, !tbaa !54
  %50 = getelementptr inbounds nuw %struct.CallInfo, ptr %49, i32 0, i32 4
  %51 = getelementptr inbounds nuw %struct.anon.1, ptr %50, i32 0, i32 0
  %52 = load ptr, ptr %51, align 8, !tbaa !34
  %53 = icmp ne ptr %52, null
  br i1 %53, label %54, label %65

54:                                               ; preds = %48
  %55 = load ptr, ptr %7, align 8, !tbaa !54
  %56 = getelementptr inbounds nuw %struct.CallInfo, ptr %55, i32 0, i32 4
  %57 = getelementptr inbounds nuw %struct.anon.1, ptr %56, i32 0, i32 0
  %58 = load ptr, ptr %57, align 8, !tbaa !34
  %59 = load ptr, ptr %3, align 8, !tbaa !4
  %60 = load ptr, ptr %7, align 8, !tbaa !54
  %61 = getelementptr inbounds nuw %struct.CallInfo, ptr %60, i32 0, i32 4
  %62 = getelementptr inbounds nuw %struct.anon.1, ptr %61, i32 0, i32 2
  %63 = load i64, ptr %62, align 8, !tbaa !34
  %64 = call i32 %58(ptr noundef %59, i32 noundef 1, i64 noundef %63)
  store i32 %64, ptr %5, align 4, !tbaa !9
  br label %65

65:                                               ; preds = %54, %48
  %66 = load ptr, ptr %3, align 8, !tbaa !4
  %67 = load ptr, ptr %7, align 8, !tbaa !54
  %68 = load i32, ptr %5, align 4, !tbaa !9
  call void @luaD_poscall(ptr noundef %66, ptr noundef %67, i32 noundef %68)
  br label %69

69:                                               ; preds = %65, %37
  %70 = load ptr, ptr %3, align 8, !tbaa !4
  call void @unroll(ptr noundef %70, ptr noundef null)
  br label %71

71:                                               ; preds = %69, %25
  call void @llvm.lifetime.end.p0(i64 8, ptr %7) #11
  call void @llvm.lifetime.end.p0(i64 8, ptr %6) #11
  call void @llvm.lifetime.end.p0(i64 4, ptr %5) #11
  ret void
}