; Function Attrs: nounwind uwtable
define internal void @resume(ptr noundef %0, ptr noundef readonly captures(none) %1) #0 {
  %3 = load i32, ptr %1, align 4, !tbaa !74
  %4 = getelementptr inbounds nuw i8, ptr %0, i64 16
  %5 = load ptr, ptr %4, align 8, !tbaa !27
  %6 = sext i32 %3 to i64
  %7 = sub nsw i64 0, %6
  %8 = getelementptr inbounds %union.StackValue, ptr %5, i64 %7
  %9 = getelementptr inbounds nuw i8, ptr %0, i64 32
  %10 = load ptr, ptr %9, align 8, !tbaa !46
  %11 = getelementptr inbounds nuw i8, ptr %0, i64 10
  %12 = load i8, ptr %11, align 2, !tbaa !35
  %13 = icmp eq i8 %12, 0
  br i1 %13, label %14, label %43

14:                                               ; preds = %2
  %15 = getelementptr inbounds i8, ptr %8, i64 -16
  %16 = getelementptr inbounds nuw i8, ptr %0, i64 176
  %17 = load i32, ptr %16, align 8, !tbaa !38
  %18 = and i32 %17, 65528
  %19 = icmp samesign ugt i32 %18, 199
  br i1 %19, label %20, label %37, !prof !42

20:                                               ; preds = %14
  %21 = getelementptr inbounds nuw i8, ptr %0, i64 40
  %22 = load ptr, ptr %21, align 8, !tbaa !27
  %23 = ptrtoint ptr %22 to i64
  %24 = ptrtoint ptr %5 to i64
  %25 = sub i64 %23, %24
  %26 = icmp slt i64 %25, 16
  br i1 %26, label %27, label %36, !prof !42

27:                                               ; preds = %20
  %28 = getelementptr inbounds nuw i8, ptr %0, i64 48
  %29 = load ptr, ptr %28, align 8, !tbaa !27
  %30 = ptrtoint ptr %15 to i64
  %31 = ptrtoint ptr %29 to i64
  %32 = sub i64 %30, %31
  %33 = tail call i32 @luaD_growstack(ptr noundef nonnull %0, i32 noundef 0, i32 noundef 1)
  %34 = load ptr, ptr %28, align 8, !tbaa !27
  %35 = getelementptr inbounds i8, ptr %34, i64 %32
  br label %36

36:                                               ; preds = %27, %20
  %.1.i = phi ptr [ %35, %27 ], [ %15, %20 ]
  tail call void @luaE_checkcstack(ptr noundef nonnull %0) #13
  br label %37

37:                                               ; preds = %36, %14
  %.0.i = phi ptr [ %.1.i, %36 ], [ %15, %14 ]
  %38 = tail call ptr @luaD_precall(ptr noundef nonnull %0, ptr noundef %.0.i, i32 noundef -1)
  %.not.i = icmp eq ptr %38, null
  br i1 %.not.i, label %ccall.exit, label %39

39:                                               ; preds = %37
  %40 = getelementptr inbounds nuw i8, ptr %38, i64 60
  %41 = load i32, ptr %40, align 4, !tbaa !43
  %42 = or i32 %41, 65536
  store i32 %42, ptr %40, align 4, !tbaa !43
  tail call void @luaV_execute(ptr noundef nonnull %0, ptr noundef nonnull %38) #13
  br label %ccall.exit

43:                                               ; preds = %2
  store i8 0, ptr %11, align 2, !tbaa !35
  %44 = getelementptr inbounds nuw i8, ptr %10, i64 60
  %45 = load i32, ptr %44, align 4, !tbaa !43
  %46 = and i32 %45, 32768
  %.not = icmp eq i32 %46, 0
  %47 = getelementptr inbounds nuw i8, ptr %10, i64 32
  %48 = load ptr, ptr %47, align 8, !tbaa !27
  br i1 %.not, label %49, label %51

49:                                               ; preds = %43
  %50 = getelementptr inbounds i8, ptr %48, i64 -4
  store ptr %50, ptr %47, align 8, !tbaa !27
  store ptr %8, ptr %4, align 8, !tbaa !27
  tail call void @luaV_execute(ptr noundef nonnull %0, ptr noundef nonnull %10) #13
  br label %57

51:                                               ; preds = %43
  %.not22 = icmp eq ptr %48, null
  br i1 %.not22, label %56, label %52

52:                                               ; preds = %51
  %53 = getelementptr inbounds nuw i8, ptr %10, i64 48
  %54 = load i64, ptr %53, align 8, !tbaa !27
  %55 = tail call i32 %48(ptr noundef nonnull %0, i32 noundef 1, i64 noundef %54) #13
  br label %56

56:                                               ; preds = %52, %51
  %.0 = phi i32 [ %55, %52 ], [ %3, %51 ]
  tail call void @luaD_poscall(ptr noundef nonnull %0, ptr noundef nonnull %10, i32 noundef %.0)
  br label %57

57:                                               ; preds = %56, %49
  tail call void @unroll(ptr noundef nonnull %0, ptr poison)
  br label %ccall.exit

ccall.exit:                                       ; preds = %39, %37, %57
  ret void
}